target datalayout = "e-m:e-p270:32:32-p271:32:32-p272:64:64-i64:64-i128:128-f80:128-n8:16:32:64-S128"
target triple = "x86_64-pc-linux-gnu"

@g_assert_poison = external global ptr, align 8
@.str = private unnamed_addr constant [44 x i8] c"src/hotspot/share/opto/vectorIntrinsics.cpp\00", align 1
@.str.4 = private unnamed_addr constant [20 x i8] c"Unexpected type: %s\00", align 1
@_ZN19Abstract_VM_Version9_featuresE = external global i64, align 8

; Function Attrs: mustprogress nounwind uwtable
define linkonce_odr hidden noundef zeroext i1 @_ZN10VM_Version13supports_evexEv() #1 comdat align 2 {
  %1 = load i64, ptr @_ZN19Abstract_VM_Version9_featuresE, align 8
  %2 = and i64 %1, 134217728
  %3 = icmp ne i64 %2, 0
  ret i1 %3
}

; Function Attrs: mustprogress nounwind uwtable
define linkonce_odr hidden noundef zeroext i1 @_ZN7Matcher22has_predicated_vectorsEv() #1 comdat align 2 {
  %1 = call noundef zeroext i1 @_ZN10VM_Version13supports_evexEv()
  ret i1 %1
}

; Function Attrs: mustprogress nounwind uwtable
define hidden noundef zeroext i1 @_ZN14LibraryCallKit27arch_supports_vector_rotateEii9BasicTypeNS_17VectorMaskUseTypeEb(ptr noundef nonnull align 8 dereferenceable(108) %0, i32 noundef %1, i32 noundef %2, i8 noundef zeroext %3, i32 noundef %4, i1 noundef zeroext %5) #1 align 2 {
  %7 = alloca i1, align 1
  %8 = alloca ptr, align 8
  %9 = alloca i32, align 4
  %10 = alloca i32, align 4
  %11 = alloca i8, align 1
  %12 = alloca i32, align 4
  %13 = alloca i8, align 1
  %14 = alloca i8, align 1
  %15 = alloca i32, align 4
  %16 = alloca i32, align 4
  %17 = alloca i32, align 4
  %18 = alloca i32, align 4
  store ptr %0, ptr %8, align 8
  store i32 %1, ptr %9, align 4
  store i32 %2, ptr %10, align 4
  store i8 %3, ptr %11, align 1
  store i32 %4, ptr %12, align 4
  %19 = zext i1 %5 to i8
  store i8 %19, ptr %13, align 1
  %20 = load ptr, ptr %8, align 8
  store i8 1, ptr %14, align 1
  %21 = load i32, ptr %9, align 4
  %22 = load i32, ptr %10, align 4
  %23 = load i8, ptr %11, align 1
  %24 = call noundef zeroext i1 @_ZN7Matcher27match_rule_supported_vectorEii9BasicType(i32 noundef %21, i32 noundef %22, i8 noundef zeroext %23)
  br i1 %24, label %25, label %32

25:                                               ; preds = %6
  %26 = load i8, ptr %13, align 1
  %27 = trunc i8 %26 to i1
  br i1 %27, label %28, label %33

28:                                               ; preds = %25
  %29 = load i32, ptr %10, align 4
  %30 = load i8, ptr %11, align 1
  %31 = call noundef zeroext i1 @_ZN14LibraryCallKit20arch_supports_vectorEii9BasicTypeNS_17VectorMaskUseTypeEb(ptr noundef nonnull align 8 dereferenceable(108) %20, i32 noundef 452, i32 noundef %29, i8 noundef zeroext %30, i32 noundef 8, i1 noundef zeroext false)
  br i1 %31, label %33, label %32

32:                                               ; preds = %28, %6
  store i8 0, ptr %14, align 1
  br label %33

33:                                               ; preds = %32, %28, %25
  %34 = load i8, ptr %14, align 1
  %35 = trunc i8 %34 to i1
  br i1 %35, label %36, label %63

36:                                               ; preds = %33
  %37 = load i32, ptr %12, align 4
  %38 = and i32 %37, 1
  %39 = icmp ne i32 %38, 0
  br i1 %39, label %40, label %49

40:                                               ; preds = %36
  %41 = load i32, ptr %10, align 4
  %42 = load i8, ptr %11, align 1
  %43 = call noundef zeroext i1 @_ZN7Matcher27match_rule_supported_vectorEii9BasicType(i32 noundef 477, i32 noundef %41, i8 noundef zeroext %42)
  br i1 %43, label %44, label %47

44:                                               ; preds = %40
  %45 = load i32, ptr %10, align 4
  %46 = call noundef zeroext i1 @_ZN7Matcher27match_rule_supported_vectorEii9BasicType(i32 noundef 426, i32 noundef %45, i8 noundef zeroext 4)
  br i1 %46, label %48, label %47

47:                                               ; preds = %44, %40
  store i1 false, ptr %7, align 1
  br label %107

48:                                               ; preds = %44
  br label %49

49:                                               ; preds = %48, %36
  %50 = load i32, ptr %12, align 4
  %51 = and i32 %50, 4
  %52 = icmp ne i32 %51, 0
  br i1 %52, label %53, label %62

53:                                               ; preds = %49
  %54 = call noundef zeroext i1 @_ZN7Matcher22has_predicated_vectorsEv()
  br i1 %54, label %55, label %60

55:                                               ; preds = %53
  %56 = load i32, ptr %9, align 4
  %57 = load i32, ptr %10, align 4
  %58 = load i8, ptr %11, align 1
  %59 = call noundef zeroext i1 @_ZN7Matcher34match_rule_supported_vector_maskedEii9BasicType(i32 noundef %56, i32 noundef %57, i8 noundef zeroext %58)
  br i1 %59, label %61, label %60

60:                                               ; preds = %55, %53
  store i1 false, ptr %7, align 1
  br label %107

61:                                               ; preds = %55
  br label %62

62:                                               ; preds = %61, %49
  br label %63

63:                                               ; preds = %62, %33
  %64 = load i8, ptr %11, align 1
  %65 = zext i8 %64 to i32
  switch i32 %65, label %70 [
    i32 8, label %66
    i32 9, label %67
    i32 10, label %68
    i32 11, label %69
  ]

66:                                               ; preds = %63
  store i32 185, ptr %15, align 4
  store i32 349, ptr %16, align 4
  br label %76

67:                                               ; preds = %63
  store i32 185, ptr %15, align 4
  store i32 350, ptr %16, align 4
  br label %76

68:                                               ; preds = %63
  store i32 185, ptr %15, align 4
  store i32 351, ptr %16, align 4
  br label %76

69:                                               ; preds = %63
  store i32 186, ptr %15, align 4
  store i32 352, ptr %16, align 4
  br label %76

70:                                               ; preds = %63
  br label %71

71:                                               ; preds = %70
  %72 = load ptr, ptr @g_assert_poison, align 8
  store i8 88, ptr %72, align 1
  %73 = load i8, ptr %11, align 1
  %74 = call noundef ptr @_Z9type2name9BasicType(i8 noundef zeroext %73)
  call void (i32, ptr, i32, ptr, ...) @_Z12report_fatal11VMErrorTypePKciS1_z(i32 noundef -536870912, ptr noundef @.str, i32 noundef 133, ptr noundef @.str.4, ptr noundef %74) #7
  unreachable

75:                                               ; No predecessors!
  br label %76

76:                                               ; preds = %75, %69, %68, %67, %66
  %77 = load i32, ptr %15, align 4
  %78 = load i8, ptr %11, align 1
  %79 = call noundef i32 @_ZN10VectorNode6opcodeEi9BasicType(i32 noundef %77, i8 noundef zeroext %78)
  store i32 %79, ptr %17, align 4
  %80 = load i32, ptr %16, align 4
  %81 = load i8, ptr %11, align 1
  %82 = call noundef i32 @_ZN10VectorNode6opcodeEi9BasicType(i32 noundef %80, i8 noundef zeroext %81)
  store i32 %82, ptr %18, align 4
  %83 = load i8, ptr %14, align 1
  %84 = trunc i8 %83 to i1
  br i1 %84, label %104, label %85

85:                                               ; preds = %76
  %86 = load i32, ptr %17, align 4
  %87 = load i32, ptr %10, align 4
  %88 = load i8, ptr %11, align 1
  %89 = load i8, ptr %13, align 1
  %90 = trunc i8 %89 to i1
  %91 = call noundef zeroext i1 @_ZN14LibraryCallKit20arch_supports_vectorEii9BasicTypeNS_17VectorMaskUseTypeEb(ptr noundef nonnull align 8 dereferenceable(108) %20, i32 noundef %86, i32 noundef %87, i8 noundef zeroext %88, i32 noundef 8, i1 noundef zeroext %90)
  br i1 %91, label %92, label %104

92:                                               ; preds = %85
  %93 = load i32, ptr %18, align 4
  %94 = load i32, ptr %10, align 4
  %95 = load i8, ptr %11, align 1
  %96 = load i8, ptr %13, align 1
  %97 = trunc i8 %96 to i1
  %98 = call noundef zeroext i1 @_ZN14LibraryCallKit20arch_supports_vectorEii9BasicTypeNS_17VectorMaskUseTypeEb(ptr noundef nonnull align 8 dereferenceable(108) %20, i32 noundef %93, i32 noundef %94, i8 noundef zeroext %95, i32 noundef 8, i1 noundef zeroext %97)
  br i1 %98, label %99, label %104

99:                                               ; preds = %92
  %100 = load i32, ptr %10, align 4
  %101 = load i8, ptr %11, align 1
  %102 = call noundef zeroext i1 @_ZN14LibraryCallKit20arch_supports_vectorEii9BasicTypeNS_17VectorMaskUseTypeEb(ptr noundef nonnull align 8 dereferenceable(108) %20, i32 noundef 415, i32 noundef %100, i8 noundef zeroext %101, i32 noundef 8, i1 noundef zeroext false)
  br i1 %102, label %103, label %104

103:                                              ; preds = %99
  store i8 1, ptr %14, align 1
  br label %104

104:                                              ; preds = %103, %99, %92, %85, %76
  %105 = load i8, ptr %14, align 1
  %106 = trunc i8 %105 to i1
  store i1 %106, ptr %7, align 1
  br label %107

107:                                              ; preds = %104, %60, %47
  %108 = load i1, ptr %7, align 1
  ret i1 %108
}