; Function Attrs: mustprogress nounwind uwtable
define hidden noundef zeroext i1 @_ZN14LibraryCallKit27arch_supports_vector_rotateEii9BasicTypeNS_17VectorMaskUseTypeEb(ptr nocapture noundef nonnull readonly align 8 dereferenceable(108) %0, i32 noundef %1, i32 noundef %2, i8 noundef zeroext %3, i32 noundef %4, i1 noundef zeroext %5) local_unnamed_addr #0 align 2 {
  %7 = tail call noundef zeroext i1 @_ZN7Matcher27match_rule_supported_vectorEii9BasicType(i32 noundef %1, i32 noundef %2, i8 noundef zeroext %3) #9
  br i1 %7, label %8, label %24

8:                                                ; preds = %6
  br i1 %5, label %9, label %11

9:                                                ; preds = %8
  %10 = tail call noundef zeroext i1 @_ZN14LibraryCallKit20arch_supports_vectorEii9BasicTypeNS_17VectorMaskUseTypeEb(ptr noundef nonnull align 8 dereferenceable(108) %0, i32 noundef 452, i32 noundef %2, i8 noundef zeroext %3, i32 noundef 8, i1 noundef zeroext false)
  br i1 %10, label %11, label %24

11:                                               ; preds = %9, %8
  %12 = and i32 %4, 1
  %.not = icmp eq i32 %12, 0
  br i1 %.not, label %17, label %13

13:                                               ; preds = %11
  %14 = tail call noundef zeroext i1 @_ZN7Matcher27match_rule_supported_vectorEii9BasicType(i32 noundef 477, i32 noundef %2, i8 noundef zeroext %3) #9
  br i1 %14, label %15, label %39

15:                                               ; preds = %13
  %16 = tail call noundef zeroext i1 @_ZN7Matcher27match_rule_supported_vectorEii9BasicType(i32 noundef 426, i32 noundef %2, i8 noundef zeroext 4) #9
  br i1 %16, label %17, label %39

17:                                               ; preds = %15, %11
  %18 = and i32 %4, 4
  %.not37 = icmp eq i32 %18, 0
  br i1 %.not37, label %24, label %19

19:                                               ; preds = %17
  %20 = load i64, ptr @_ZN19Abstract_VM_Version9_featuresE, align 8
  %21 = and i64 %20, 134217728
  %.not41 = icmp eq i64 %21, 0
  br i1 %.not41, label %39, label %22

22:                                               ; preds = %19
  %23 = tail call noundef zeroext i1 @_ZN7Matcher34match_rule_supported_vector_maskedEii9BasicType(i32 noundef %1, i32 noundef %2, i8 noundef zeroext %3) #9
  br i1 %23, label %24, label %39

24:                                               ; preds = %9, %6, %17, %22
  %25 = phi i1 [ true, %17 ], [ true, %22 ], [ false, %6 ], [ false, %9 ]
  %switch.tableidx = add i8 %3, -8
  %26 = icmp ult i8 %switch.tableidx, 4
  br i1 %26, label %switch.lookup, label %27

27:                                               ; preds = %24
  %28 = load ptr, ptr @g_assert_poison, align 8
  store i8 88, ptr %28, align 1
  %29 = tail call noundef ptr @_Z9type2name9BasicType(i8 noundef zeroext %3) #9
  tail call void (i32, ptr, i32, ptr, ...) @_Z12report_fatal11VMErrorTypePKciS1_z(i32 noundef -536870912, ptr noundef nonnull @.str, i32 noundef 133, ptr noundef nonnull @.str.4, ptr noundef %29) #10
  unreachable

switch.lookup:                                    ; preds = %24
  %30 = zext nneg i8 %switch.tableidx to i64
  %switch.gep = getelementptr inbounds [4 x i32], ptr @switch.table._ZN14LibraryCallKit27arch_supports_vector_rotateEii9BasicTypeNS_17VectorMaskUseTypeEb, i64 0, i64 %30
  %switch.load = load i32, ptr %switch.gep, align 4
  %switch.idx.cast = zext nneg i8 %switch.tableidx to i32
  %switch.offset = add nuw nsw i32 %switch.idx.cast, 349
  %31 = tail call noundef i32 @_ZN10VectorNode6opcodeEi9BasicType(i32 noundef %switch.load, i8 noundef zeroext %3) #9
  %32 = tail call noundef i32 @_ZN10VectorNode6opcodeEi9BasicType(i32 noundef %switch.offset, i8 noundef zeroext %3) #9
  br i1 %25, label %39, label %33

33:                                               ; preds = %switch.lookup
  %34 = tail call noundef zeroext i1 @_ZN14LibraryCallKit20arch_supports_vectorEii9BasicTypeNS_17VectorMaskUseTypeEb(ptr noundef nonnull align 8 dereferenceable(108) %0, i32 noundef %31, i32 noundef %2, i8 noundef zeroext %3, i32 noundef 8, i1 noundef zeroext %5)
  br i1 %34, label %35, label %39

35:                                               ; preds = %33
  %36 = tail call noundef zeroext i1 @_ZN14LibraryCallKit20arch_supports_vectorEii9BasicTypeNS_17VectorMaskUseTypeEb(ptr noundef nonnull align 8 dereferenceable(108) %0, i32 noundef %32, i32 noundef %2, i8 noundef zeroext %3, i32 noundef 8, i1 noundef zeroext %5)
  br i1 %36, label %37, label %39

37:                                               ; preds = %35
  %38 = tail call noundef zeroext i1 @_ZN14LibraryCallKit20arch_supports_vectorEii9BasicTypeNS_17VectorMaskUseTypeEb(ptr noundef nonnull align 8 dereferenceable(108) %0, i32 noundef 415, i32 noundef %2, i8 noundef zeroext %3, i32 noundef 8, i1 noundef zeroext false)
  br label %39

39:                                               ; preds = %switch.lookup, %33, %35, %37, %19, %22, %13, %15
  %.0 = phi i1 [ false, %15 ], [ false, %13 ], [ false, %22 ], [ false, %19 ], [ true, %switch.lookup ], [ false, %35 ], [ false, %33 ], [ %38, %37 ]
  ret i1 %.0
}